target datalayout = "e-m:e-p270:32:32-p271:32:32-p272:64:64-i64:64-i128:128-f80:128-n8:16:32:64-S128"
target triple = "x86_64-pc-linux-gnu"

%class.CommandData = type { %class.RAROptions, i8, i8, i32, i8, [2064 x i32], [2048 x i32], %class.StringList, %class.StringList, %class.StringList, %class.StringList, %class.StringList, %class.SecPassword, %"class.std::vector.0" }
%class.RAROptions = type { i32, i32, i8, i8, i8, i64, [2048 x i32], [2048 x i32], i32, i8, [2048 x i32], [2048 x i32], i32, i32, i32, i32, [2048 x i32], [2048 x i32], i8, i8, i8, [2048 x i32], i32, i32, i32, i32, i32, i32, i32, i32, i8, i8, i8, i8, i8, i32, i32, i8, i8, i8, i8, i8, i32, i32, i64, i32, i8, i8, i8, i32, i32, i8, i8, i8, i8, i32, i32, i8, i8, i8, i8, [128 x i32], [128 x i32], i8, i8, i8, i8, i8, %class.RarTime, %class.RarTime, %class.RarTime, i8, i8, i8, %class.RarTime, %class.RarTime, %class.RarTime, i8, i8, i8, i64, i64, i8, i8, i8, [16 x %struct.FilterMode], [2048 x i32], i32, i32, i32, i32, i32, i32, i8, [2048 x i32], i32, [2048 x i32], i32, i32, i64, ptr, ptr, ptr }
%class.RarTime = type { i64 }
%struct.FilterMode = type { i32, i32, i32 }
%class.StringList = type { %class.Array, i64, i64, [16 x i64], i64 }
%class.Array = type { ptr, i64, i64, i64 }
%class.SecPassword = type <{ %"class.std::vector", i8, [7 x i8] }>
%"class.std::vector" = type { %"struct.std::_Vector_base" }
%"struct.std::_Vector_base" = type { %"struct.std::_Vector_base<wchar_t, std::allocator<wchar_t>>::_Vector_impl" }
%"struct.std::_Vector_base<wchar_t, std::allocator<wchar_t>>::_Vector_impl" = type { %"struct.std::_Vector_base<wchar_t, std::allocator<wchar_t>>::_Vector_impl_data" }
%"struct.std::_Vector_base<wchar_t, std::allocator<wchar_t>>::_Vector_impl_data" = type { ptr, ptr, ptr }
%"class.std::vector.0" = type { %"struct.std::_Vector_base.1" }
%"struct.std::_Vector_base.1" = type { %"struct.std::_Vector_base<long, std::allocator<long>>::_Vector_impl" }
%"struct.std::_Vector_base<long, std::allocator<long>>::_Vector_impl" = type { %"struct.std::_Vector_base<long, std::allocator<long>>::_Vector_impl_data" }
%"struct.std::_Vector_base<long, std::allocator<long>>::_Vector_impl_data" = type { ptr, ptr, ptr }
%struct.FindData = type <{ [2048 x i32], i64, i32, i8, i8, [2 x i8], %class.RarTime, %class.RarTime, %class.RarTime, i32, i8, [3 x i8] }>

@.str.3 = private unnamed_addr constant [5 x i32] [i32 65, i32 70, i32 85, i32 77, i32 0], align 4

; Function Attrs: mustprogress nounwind uwtable
define linkonce_odr void @_ZN7RarTime5ResetEv(ptr noundef nonnull align 8 dereferenceable(8) %0) #1 comdat align 2 {
  %2 = alloca ptr, align 8
  store ptr %0, ptr %2, align 8
  %3 = load ptr, ptr %2, align 8
  %4 = getelementptr inbounds %class.RarTime, ptr %3, i32 0, i32 0
  store i64 0, ptr %4, align 8
  ret void
}

; Function Attrs: mustprogress uwtable
define linkonce_odr void @_ZN7RarTimeC2Ev(ptr noundef nonnull align 8 dereferenceable(8) %0) unnamed_addr #0 comdat align 2 {
  %2 = alloca ptr, align 8
  store ptr %0, ptr %2, align 8
  %3 = load ptr, ptr %2, align 8
  call void @_ZN7RarTime5ResetEv(ptr noundef nonnull align 8 dereferenceable(8) %3)
  ret void
}

; Function Attrs: mustprogress uwtable
define linkonce_odr void @_ZN8FindDataC2Ev(ptr noundef nonnull align 8 dereferenceable(8237) %0) unnamed_addr #0 comdat align 2 {
  %2 = alloca ptr, align 8
  store ptr %0, ptr %2, align 8
  %3 = load ptr, ptr %2, align 8
  %4 = getelementptr inbounds %struct.FindData, ptr %3, i32 0, i32 6
  call void @_ZN7RarTimeC2Ev(ptr noundef nonnull align 8 dereferenceable(8) %4)
  %5 = getelementptr inbounds %struct.FindData, ptr %3, i32 0, i32 7
  call void @_ZN7RarTimeC2Ev(ptr noundef nonnull align 8 dereferenceable(8) %5)
  %6 = getelementptr inbounds %struct.FindData, ptr %3, i32 0, i32 8
  call void @_ZN7RarTimeC2Ev(ptr noundef nonnull align 8 dereferenceable(8) %6)
  ret void
}

; Function Attrs: mustprogress nounwind uwtable
define noundef zeroext i1 @_ZN11CommandData8IsSwitchEi(ptr noundef nonnull align 8 dereferenceable(100904) %0, i32 noundef %1) #1 align 2 {
  %3 = alloca ptr, align 8
  %4 = alloca i32, align 4
  store ptr %0, ptr %3, align 8
  store i32 %1, ptr %4, align 4
  %5 = load i32, ptr %4, align 4
  %6 = icmp eq i32 %5, 45
  ret i1 %6
}

; Function Attrs: mustprogress uwtable
define void @_ZN11CommandData8ParseArgEPw(ptr noundef nonnull align 8 dereferenceable(100904) %0, ptr noundef %1) #0 align 2 {
  %3 = alloca ptr, align 8
  %4 = alloca ptr, align 8
  %5 = alloca i64, align 8
  %6 = alloca i32, align 4
  %7 = alloca i8, align 1
  %8 = alloca i32, align 4
  %9 = alloca i8, align 1
  %10 = alloca i8, align 1
  %11 = alloca i8, align 1
  %12 = alloca %struct.FindData, align 8
  %13 = alloca i8, align 1
  store ptr %0, ptr %3, align 8
  store ptr %1, ptr %4, align 8
  %14 = load ptr, ptr %3, align 8
  %15 = load ptr, ptr %4, align 8
  %16 = load i32, ptr %15, align 4
  %17 = call noundef zeroext i1 @_ZN11CommandData8IsSwitchEi(ptr noundef nonnull align 8 dereferenceable(100904) %14, i32 noundef %16)
  br i1 %17, label %18, label %38

18:                                               ; preds = %2
  %19 = getelementptr inbounds %class.CommandData, ptr %14, i32 0, i32 2
  %20 = load i8, ptr %19, align 1
  %21 = trunc i8 %20 to i1
  br i1 %21, label %38, label %22

22:                                               ; preds = %18
  %23 = load ptr, ptr %4, align 8
  %24 = getelementptr inbounds i32, ptr %23, i64 1
  %25 = load i32, ptr %24, align 4
  %26 = icmp eq i32 %25, 45
  br i1 %26, label %27, label %34

27:                                               ; preds = %22
  %28 = load ptr, ptr %4, align 8
  %29 = getelementptr inbounds i32, ptr %28, i64 2
  %30 = load i32, ptr %29, align 4
  %31 = icmp eq i32 %30, 0
  br i1 %31, label %32, label %34

32:                                               ; preds = %27
  %33 = getelementptr inbounds %class.CommandData, ptr %14, i32 0, i32 2
  store i8 1, ptr %33, align 1
  br label %37

34:                                               ; preds = %27, %22
  %35 = load ptr, ptr %4, align 8
  %36 = getelementptr inbounds i32, ptr %35, i64 1
  call void @_ZN11CommandData13ProcessSwitchEPKw(ptr noundef nonnull align 8 dereferenceable(100904) %14, ptr noundef %36)
  br label %37

37:                                               ; preds = %34, %32
  br label %220

38:                                               ; preds = %18, %2
  %39 = getelementptr inbounds %class.CommandData, ptr %14, i32 0, i32 5
  %40 = getelementptr inbounds [2064 x i32], ptr %39, i64 0, i64 0
  %41 = load i32, ptr %40, align 4
  %42 = icmp eq i32 %41, 0
  br i1 %42, label %43, label %74

43:                                               ; preds = %38
  %44 = getelementptr inbounds %class.CommandData, ptr %14, i32 0, i32 5
  %45 = getelementptr inbounds [2064 x i32], ptr %44, i64 0, i64 0
  %46 = load ptr, ptr %4, align 8
  call void @_Z8wcsncpyzPwPKwm(ptr noundef %45, ptr noundef %46, i64 noundef 2064)
  %47 = getelementptr inbounds %class.CommandData, ptr %14, i32 0, i32 5
  %48 = getelementptr inbounds [2064 x i32], ptr %47, i64 0, i64 0
  %49 = load i32, ptr %48, align 4
  %50 = call noundef i32 @_Z8toupperwi(i32 noundef %49)
  %51 = getelementptr inbounds %class.CommandData, ptr %14, i32 0, i32 5
  %52 = getelementptr inbounds [2064 x i32], ptr %51, i64 0, i64 0
  store i32 %50, ptr %52, align 4
  %53 = getelementptr inbounds %class.CommandData, ptr %14, i32 0, i32 5
  %54 = getelementptr inbounds [2064 x i32], ptr %53, i64 0, i64 0
  %55 = load i32, ptr %54, align 4
  %56 = icmp ne i32 %55, 73
  br i1 %56, label %57, label %66

57:                                               ; preds = %43
  %58 = getelementptr inbounds %class.CommandData, ptr %14, i32 0, i32 5
  %59 = getelementptr inbounds [2064 x i32], ptr %58, i64 0, i64 0
  %60 = load i32, ptr %59, align 4
  %61 = icmp ne i32 %60, 83
  br i1 %61, label %62, label %66

62:                                               ; preds = %57
  %63 = getelementptr inbounds %class.CommandData, ptr %14, i32 0, i32 5
  %64 = getelementptr inbounds [2064 x i32], ptr %63, i64 0, i64 0
  %65 = call noundef ptr @_Z8wcsupperPw(ptr noundef %64)
  br label %66

66:                                               ; preds = %62, %57, %43
  %67 = getelementptr inbounds %class.CommandData, ptr %14, i32 0, i32 5
  %68 = getelementptr inbounds [2064 x i32], ptr %67, i64 0, i64 0
  %69 = load i32, ptr %68, align 4
  %70 = icmp eq i32 %69, 80
  br i1 %70, label %71, label %73

71:                                               ; preds = %66
  %72 = getelementptr inbounds %class.RAROptions, ptr %14, i32 0, i32 22
  store i32 2, ptr %72, align 4
  call void @_Z19SetConsoleMsgStream12MESSAGE_TYPE(i32 noundef 2)
  br label %73

73:                                               ; preds = %71, %66
  br label %219

74:                                               ; preds = %38
  %75 = getelementptr inbounds %class.CommandData, ptr %14, i32 0, i32 6
  %76 = getelementptr inbounds [2048 x i32], ptr %75, i64 0, i64 0
  %77 = load i32, ptr %76, align 4
  %78 = icmp eq i32 %77, 0
  br i1 %78, label %79, label %83

79:                                               ; preds = %74
  %80 = getelementptr inbounds %class.CommandData, ptr %14, i32 0, i32 6
  %81 = getelementptr inbounds [2048 x i32], ptr %80, i64 0, i64 0
  %82 = load ptr, ptr %4, align 8
  call void @_Z8wcsncpyzPwPKwm(ptr noundef %81, ptr noundef %82, i64 noundef 2048)
  br label %218

83:                                               ; preds = %74
  %84 = load ptr, ptr %4, align 8
  %85 = call i64 @wcslen(ptr noundef %84) #10
  store i64 %85, ptr %5, align 8
  %86 = load i64, ptr %5, align 8
  %87 = icmp eq i64 %86, 0
  br i1 %87, label %88, label %89

88:                                               ; preds = %83
  br label %95

89:                                               ; preds = %83
  %90 = load ptr, ptr %4, align 8
  %91 = load i64, ptr %5, align 8
  %92 = sub i64 %91, 1
  %93 = getelementptr inbounds i32, ptr %90, i64 %92
  %94 = load i32, ptr %93, align 4
  br label %95

95:                                               ; preds = %89, %88
  %96 = phi i32 [ 0, %88 ], [ %94, %89 ]
  store i32 %96, ptr %6, align 4
  %97 = load i32, ptr %6, align 4
  %98 = call noundef zeroext i1 @_Z10IsDriveDivi(i32 noundef %97)
  br i1 %98, label %102, label %99

99:                                               ; preds = %95
  %100 = load i32, ptr %6, align 4
  %101 = call noundef zeroext i1 @_Z9IsPathDivi(i32 noundef %100)
  br label %102

102:                                              ; preds = %99, %95
  %103 = phi i1 [ true, %95 ], [ %101, %99 ]
  %104 = zext i1 %103 to i8
  store i8 %104, ptr %7, align 1
  %105 = getelementptr inbounds %class.CommandData, ptr %14, i32 0, i32 5
  %106 = getelementptr inbounds [2064 x i32], ptr %105, i64 0, i64 0
  %107 = load i32, ptr %106, align 4
  %108 = call noundef i32 @_Z8toupperwi(i32 noundef %107)
  store i32 %108, ptr %8, align 4
  %109 = load i32, ptr %8, align 4
  %110 = call ptr @wcschr(ptr noundef @.str.3, i32 noundef signext %109) #10
  %111 = icmp ne ptr %110, null
  %112 = zext i1 %111 to i8
  store i8 %112, ptr %9, align 1
  %113 = load i32, ptr %8, align 4
  %114 = icmp eq i32 %113, 88
  br i1 %114, label %118, label %115

115:                                              ; preds = %102
  %116 = load i32, ptr %8, align 4
  %117 = icmp eq i32 %116, 69
  br label %118

118:                                              ; preds = %115, %102
  %119 = phi i1 [ true, %102 ], [ %117, %115 ]
  %120 = zext i1 %119 to i8
  store i8 %120, ptr %10, align 1
  %121 = load i32, ptr %8, align 4
  %122 = icmp eq i32 %121, 82
  br i1 %122, label %123, label %128

123:                                              ; preds = %118
  %124 = getelementptr inbounds %class.CommandData, ptr %14, i32 0, i32 5
  %125 = getelementptr inbounds [2064 x i32], ptr %124, i64 0, i64 1
  %126 = load i32, ptr %125, align 4
  %127 = icmp eq i32 %126, 0
  br label %128

128:                                              ; preds = %123, %118
  %129 = phi i1 [ false, %118 ], [ %127, %123 ]
  %130 = zext i1 %129 to i8
  store i8 %130, ptr %11, align 1
  %131 = load i8, ptr %7, align 1
  %132 = trunc i8 %131 to i1
  br i1 %132, label %133, label %140

133:                                              ; preds = %128
  %134 = load i8, ptr %9, align 1
  %135 = trunc i8 %134 to i1
  br i1 %135, label %140, label %136

136:                                              ; preds = %133
  %137 = getelementptr inbounds %class.RAROptions, ptr %14, i32 0, i32 10
  %138 = getelementptr inbounds [2048 x i32], ptr %137, i64 0, i64 0
  %139 = load ptr, ptr %4, align 8
  call void @_Z8wcsncpyzPwPKwm(ptr noundef %138, ptr noundef %139, i64 noundef 2048)
  br label %217

140:                                              ; preds = %133, %128
  %141 = load i8, ptr %9, align 1
  %142 = trunc i8 %141 to i1
  br i1 %142, label %146, label %143

143:                                              ; preds = %140
  %144 = load i32, ptr %8, align 4
  %145 = icmp eq i32 %144, 84
  br i1 %145, label %146, label %157

146:                                              ; preds = %143, %140
  %147 = load ptr, ptr %4, align 8
  %148 = load i32, ptr %147, align 4
  %149 = icmp ne i32 %148, 64
  br i1 %149, label %154, label %150

150:                                              ; preds = %146
  %151 = getelementptr inbounds %class.CommandData, ptr %14, i32 0, i32 3
  %152 = load i32, ptr %151, align 4
  %153 = icmp eq i32 %152, 1
  br i1 %153, label %154, label %157

154:                                              ; preds = %150, %146
  %155 = getelementptr inbounds %class.CommandData, ptr %14, i32 0, i32 7
  %156 = load ptr, ptr %4, align 8
  call void @_ZN10StringList9AddStringEPKw(ptr noundef nonnull align 8 dereferenceable(184) %155, ptr noundef %156)
  br label %216

157:                                              ; preds = %150, %143
  call void @_ZN8FindDataC2Ev(ptr noundef nonnull align 8 dereferenceable(8237) %12)
  %158 = load ptr, ptr %4, align 8
  %159 = call noundef zeroext i1 @_ZN8FindFile8FastFindEPKwP8FindDatab(ptr noundef %158, ptr noundef %12, i1 noundef zeroext false)
  %160 = zext i1 %159 to i8
  store i8 %160, ptr %13, align 1
  %161 = load i8, ptr %13, align 1
  %162 = trunc i8 %161 to i1
  br i1 %162, label %163, label %167

163:                                              ; preds = %157
  %164 = getelementptr inbounds %class.CommandData, ptr %14, i32 0, i32 3
  %165 = load i32, ptr %164, align 4
  %166 = icmp eq i32 %165, 2
  br i1 %166, label %167, label %187

167:                                              ; preds = %163, %157
  %168 = getelementptr inbounds %class.CommandData, ptr %14, i32 0, i32 3
  %169 = load i32, ptr %168, align 4
  %170 = icmp ne i32 %169, 1
  br i1 %170, label %171, label %187

171:                                              ; preds = %167
  %172 = load ptr, ptr %4, align 8
  %173 = load i32, ptr %172, align 4
  %174 = icmp eq i32 %173, 64
  br i1 %174, label %175, label %187

175:                                              ; preds = %171
  %176 = load ptr, ptr %4, align 8
  %177 = getelementptr inbounds i32, ptr %176, i64 1
  %178 = call noundef zeroext i1 @_Z10IsWildcardPKw(ptr noundef %177)
  br i1 %178, label %187, label %179

179:                                              ; preds = %175
  %180 = getelementptr inbounds %class.CommandData, ptr %14, i32 0, i32 1
  store i8 1, ptr %180, align 8
  %181 = load ptr, ptr %4, align 8
  %182 = getelementptr inbounds i32, ptr %181, i64 1
  %183 = getelementptr inbounds %class.CommandData, ptr %14, i32 0, i32 7
  %184 = getelementptr inbounds %class.RAROptions, ptr %14, i32 0, i32 13
  %185 = load i32, ptr %184, align 4
  %186 = call noundef zeroext i1 @_Z12ReadTextFilePKwP10StringListbb11RAR_CHARSETbbb(ptr noundef %182, ptr noundef %183, i1 noundef zeroext false, i1 noundef zeroext true, i32 noundef %185, i1 noundef zeroext true, i1 noundef zeroext true, i1 noundef zeroext true)
  br label %215

187:                                              ; preds = %175, %171, %167, %163
  %188 = load i8, ptr %13, align 1
  %189 = trunc i8 %188 to i1
  br i1 %189, label %190, label %211

190:                                              ; preds = %187
  %191 = getelementptr inbounds %struct.FindData, ptr %12, i32 0, i32 3
  %192 = load i8, ptr %191, align 4
  %193 = trunc i8 %192 to i1
  br i1 %193, label %194, label %211

194:                                              ; preds = %190
  %195 = load i8, ptr %10, align 1
  %196 = trunc i8 %195 to i1
  br i1 %196, label %200, label %197

197:                                              ; preds = %194
  %198 = load i8, ptr %11, align 1
  %199 = trunc i8 %198 to i1
  br i1 %199, label %200, label %211

200:                                              ; preds = %197, %194
  %201 = getelementptr inbounds %class.RAROptions, ptr %14, i32 0, i32 10
  %202 = getelementptr inbounds [2048 x i32], ptr %201, i64 0, i64 0
  %203 = load i32, ptr %202, align 8
  %204 = icmp eq i32 %203, 0
  br i1 %204, label %205, label %211

205:                                              ; preds = %200
  %206 = getelementptr inbounds %class.RAROptions, ptr %14, i32 0, i32 10
  %207 = getelementptr inbounds [2048 x i32], ptr %206, i64 0, i64 0
  %208 = load ptr, ptr %4, align 8
  call void @_Z8wcsncpyzPwPKwm(ptr noundef %207, ptr noundef %208, i64 noundef 2048)
  %209 = getelementptr inbounds %class.RAROptions, ptr %14, i32 0, i32 10
  %210 = getelementptr inbounds [2048 x i32], ptr %209, i64 0, i64 0
  call void @_Z11AddEndSlashPwm(ptr noundef %210, i64 noundef 2048)
  br label %214

211:                                              ; preds = %200, %197, %190, %187
  %212 = getelementptr inbounds %class.CommandData, ptr %14, i32 0, i32 7
  %213 = load ptr, ptr %4, align 8
  call void @_ZN10StringList9AddStringEPKw(ptr noundef nonnull align 8 dereferenceable(184) %212, ptr noundef %213)
  br label %214

214:                                              ; preds = %211, %205
  br label %215

215:                                              ; preds = %214, %179
  br label %216

216:                                              ; preds = %215, %154
  br label %217

217:                                              ; preds = %216, %136
  br label %218

218:                                              ; preds = %217, %79
  br label %219

219:                                              ; preds = %218, %73
  br label %220

220:                                              ; preds = %219, %37
  ret void
}