; Function Attrs: mustprogress uwtable
define void @_ZN11CommandData8ParseArgEPw(ptr noundef nonnull align 8 dereferenceable(100904) %0, ptr noundef %1) local_unnamed_addr #0 align 2 {
  %3 = alloca %struct.FindData, align 8
  %4 = load i32, ptr %1, align 4
  %5 = icmp eq i32 %4, 45
  br i1 %5, label %6, label %20

6:                                                ; preds = %2
  %7 = getelementptr inbounds nuw i8, ptr %0, i64 83465
  %8 = load i8, ptr %7, align 1
  %9 = trunc i8 %8 to i1
  br i1 %9, label %20, label %10

10:                                               ; preds = %6
  %11 = getelementptr inbounds nuw i8, ptr %1, i64 4
  %12 = load i32, ptr %11, align 4
  %13 = icmp eq i32 %12, 45
  br i1 %13, label %14, label %19

14:                                               ; preds = %10
  %15 = getelementptr inbounds nuw i8, ptr %1, i64 8
  %16 = load i32, ptr %15, align 4
  %17 = icmp eq i32 %16, 0
  br i1 %17, label %18, label %19

18:                                               ; preds = %14
  store i8 1, ptr %7, align 1
  br label %105

19:                                               ; preds = %14, %10
  tail call void @_ZN11CommandData13ProcessSwitchEPKw(ptr noundef nonnull align 8 dereferenceable(100904) %0, ptr noundef nonnull %11)
  br label %105

20:                                               ; preds = %6, %2
  %21 = getelementptr inbounds nuw i8, ptr %0, i64 83476
  %22 = load i32, ptr %21, align 4
  %23 = icmp eq i32 %22, 0
  br i1 %23, label %24, label %34

24:                                               ; preds = %20
  tail call void @_Z8wcsncpyzPwPKwm(ptr noundef nonnull %21, ptr noundef nonnull %1, i64 noundef 2064)
  %25 = load i32, ptr %21, align 4
  %26 = tail call noundef i32 @_Z8toupperwi(i32 noundef %25)
  store i32 %26, ptr %21, align 4
  switch i32 %26, label %27 [
    i32 73, label %29
    i32 83, label %29
  ]

27:                                               ; preds = %24
  %28 = tail call noundef ptr @_Z8wcsupperPw(ptr noundef nonnull %21)
  %.pr = load i32, ptr %21, align 4
  br label %29

29:                                               ; preds = %24, %24, %27
  %30 = phi i32 [ %26, %24 ], [ %26, %24 ], [ %.pr, %27 ]
  %31 = icmp eq i32 %30, 80
  br i1 %31, label %32, label %105

32:                                               ; preds = %29
  %33 = getelementptr inbounds nuw i8, ptr %0, i64 57396
  store i32 2, ptr %33, align 4
  tail call void @_Z19SetConsoleMsgStream12MESSAGE_TYPE(i32 noundef 2)
  br label %105

34:                                               ; preds = %20
  %35 = getelementptr inbounds nuw i8, ptr %0, i64 91732
  %36 = load i32, ptr %35, align 4
  %37 = icmp eq i32 %36, 0
  br i1 %37, label %38, label %39

38:                                               ; preds = %34
  tail call void @_Z8wcsncpyzPwPKwm(ptr noundef nonnull %35, ptr noundef nonnull %1, i64 noundef 2048)
  br label %105

39:                                               ; preds = %34
  %40 = tail call i64 @wcslen(ptr noundef nonnull %1) #16
  %41 = icmp eq i64 %40, 0
  br i1 %41, label %46, label %42

42:                                               ; preds = %39
  %43 = getelementptr i32, ptr %1, i64 %40
  %44 = getelementptr i8, ptr %43, i64 -4
  %45 = load i32, ptr %44, align 4
  br label %46

46:                                               ; preds = %39, %42
  %47 = phi i32 [ %45, %42 ], [ 0, %39 ]
  %48 = tail call noundef zeroext i1 @_Z10IsDriveDivi(i32 noundef %47)
  br i1 %48, label %52, label %49

49:                                               ; preds = %46
  %50 = tail call noundef zeroext i1 @_Z9IsPathDivi(i32 noundef %47)
  %51 = xor i1 %50, true
  br label %52

52:                                               ; preds = %49, %46
  %.not38 = phi i1 [ false, %46 ], [ %51, %49 ]
  %53 = load i32, ptr %21, align 4
  %54 = tail call noundef i32 @_Z8toupperwi(i32 noundef %53)
  %55 = tail call ptr @wcschr(ptr noundef nonnull @.str.3, i32 noundef signext %54) #16
  %56 = icmp ne ptr %55, null
  %57 = icmp eq i32 %54, 82
  %58 = getelementptr inbounds nuw i8, ptr %0, i64 83480
  %59 = load i32, ptr %58, align 8
  %60 = icmp eq i32 %59, 0
  %61 = select i1 %57, i1 %60, i1 false
  %brmerge = select i1 %.not38, i1 true, i1 %56
  br i1 %brmerge, label %64, label %62

62:                                               ; preds = %52
  %63 = getelementptr inbounds nuw i8, ptr %0, i64 16416
  tail call void @_Z8wcsncpyzPwPKwm(ptr noundef nonnull %63, ptr noundef nonnull %1, i64 noundef 2048)
  br label %105

64:                                               ; preds = %52
  %65 = icmp eq i32 %54, 84
  %or.cond = or i1 %65, %56
  br i1 %or.cond, label %66, label %73

66:                                               ; preds = %64
  %67 = load i32, ptr %1, align 4
  %.not = icmp ne i32 %67, 64
  %68 = getelementptr inbounds nuw i8, ptr %0, i64 83468
  %69 = load i32, ptr %68, align 4
  %70 = icmp eq i32 %69, 1
  %or.cond41 = select i1 %.not, i1 true, i1 %70
  br i1 %or.cond41, label %71, label %73

71:                                               ; preds = %66
  %72 = getelementptr inbounds nuw i8, ptr %0, i64 99928
  tail call void @_ZN10StringList9AddStringEPKw(ptr noundef nonnull align 8 dereferenceable(184) %72, ptr noundef nonnull %1)
  br label %105

73:                                               ; preds = %66, %64
  %74 = getelementptr inbounds nuw i8, ptr %3, i64 8208
  call void @llvm.memset.p0.i64(ptr noundef nonnull align 8 dereferenceable(24) %74, i8 0, i64 24, i1 false)
  %75 = call noundef zeroext i1 @_ZN8FindFile8FastFindEPKwP8FindDatab(ptr noundef nonnull %1, ptr noundef nonnull %3, i1 noundef zeroext false)
  %76 = getelementptr inbounds nuw i8, ptr %0, i64 83468
  %77 = load i32, ptr %76, align 4
  %78 = icmp ne i32 %77, 2
  %or.cond45.not49 = select i1 %75, i1 %78, i1 false
  %.not35 = icmp eq i32 %77, 1
  %or.cond47 = select i1 %or.cond45.not49, i1 true, i1 %.not35
  br i1 %or.cond47, label %91, label %79

79:                                               ; preds = %73
  %80 = load i32, ptr %1, align 4
  %81 = icmp eq i32 %80, 64
  br i1 %81, label %82, label %91

82:                                               ; preds = %79
  %83 = getelementptr inbounds nuw i8, ptr %1, i64 4
  %84 = call noundef zeroext i1 @_Z10IsWildcardPKw(ptr noundef nonnull %83)
  br i1 %84, label %91, label %85

85:                                               ; preds = %82
  %86 = getelementptr inbounds nuw i8, ptr %0, i64 83464
  store i8 1, ptr %86, align 8
  %87 = getelementptr inbounds nuw i8, ptr %0, i64 99928
  %88 = getelementptr inbounds nuw i8, ptr %0, i64 32804
  %89 = load i32, ptr %88, align 4
  %90 = call noundef zeroext i1 @_Z12ReadTextFilePKwP10StringListbb11RAR_CHARSETbbb(ptr noundef nonnull %83, ptr noundef nonnull %87, i1 noundef zeroext false, i1 noundef zeroext true, i32 noundef %89, i1 noundef zeroext true, i1 noundef zeroext true, i1 noundef zeroext true)
  br label %105

91:                                               ; preds = %73, %82, %79
  br i1 %75, label %92, label %103

92:                                               ; preds = %91
  %93 = getelementptr inbounds nuw i8, ptr %3, i64 8204
  %94 = load i8, ptr %93, align 4
  %95 = trunc i8 %94 to i1
  br i1 %95, label %96, label %103

96:                                               ; preds = %92
  switch i32 %54, label %97 [
    i32 88, label %98
    i32 69, label %98
  ]

97:                                               ; preds = %96
  br i1 %61, label %98, label %103

98:                                               ; preds = %96, %96, %97
  %99 = getelementptr inbounds nuw i8, ptr %0, i64 16416
  %100 = load i32, ptr %99, align 8
  %101 = icmp eq i32 %100, 0
  br i1 %101, label %102, label %103

102:                                              ; preds = %98
  call void @_Z8wcsncpyzPwPKwm(ptr noundef nonnull %99, ptr noundef nonnull %1, i64 noundef 2048)
  call void @_Z11AddEndSlashPwm(ptr noundef nonnull %99, i64 noundef 2048)
  br label %105

103:                                              ; preds = %98, %97, %92, %91
  %104 = getelementptr inbounds nuw i8, ptr %0, i64 99928
  call void @_ZN10StringList9AddStringEPKw(ptr noundef nonnull align 8 dereferenceable(184) %104, ptr noundef nonnull %1)
  br label %105

105:                                              ; preds = %32, %29, %62, %85, %103, %102, %71, %38, %18, %19
  ret void
}